target datalayout = "e-m:e-p270:32:32-p271:32:32-p272:64:64-i64:64-i128:128-f80:128-n8:16:32:64-S128"
target triple = "x86_64-pc-linux-gnu"

; Function Attrs: mustprogress uwtable
define internal void @_ZN7meshoptL12dispatchSimdIsEEvPFvPT_mES2_mm(ptr noundef %0, ptr noundef %1, i64 noundef %2, i64 noundef %3) #0 {
  %5 = alloca ptr, align 8
  %6 = alloca ptr, align 8
  %7 = alloca i64, align 8
  %8 = alloca i64, align 8
  %9 = alloca i64, align 8
  %10 = alloca [16 x i16], align 16
  %11 = alloca i64, align 8
  store ptr %0, ptr %5, align 8, !tbaa !4
  store ptr %1, ptr %6, align 8, !tbaa !15
  store i64 %2, ptr %7, align 8, !tbaa !8
  store i64 %3, ptr %8, align 8, !tbaa !8
  call void @llvm.lifetime.start.p0(i64 8, ptr %9) #11
  %12 = load i64, ptr %7, align 8, !tbaa !8
  %13 = and i64 %12, -4
  store i64 %13, ptr %9, align 8, !tbaa !8
  %14 = load ptr, ptr %5, align 8, !tbaa !4
  %15 = load ptr, ptr %6, align 8, !tbaa !15
  %16 = load i64, ptr %9, align 8, !tbaa !8
  call void %14(ptr noundef %15, i64 noundef %16)
  %17 = load i64, ptr %9, align 8, !tbaa !8
  %18 = load i64, ptr %7, align 8, !tbaa !8
  %19 = icmp ult i64 %17, %18
  br i1 %19, label %20, label %46

20:                                               ; preds = %4
  call void @llvm.lifetime.start.p0(i64 32, ptr %10) #11
  call void @llvm.memset.p0.i64(ptr align 16 %10, i8 0, i64 32, i1 false)
  call void @llvm.lifetime.start.p0(i64 8, ptr %11) #11
  %21 = load i64, ptr %7, align 8, !tbaa !8
  %22 = load i64, ptr %9, align 8, !tbaa !8
  %23 = sub i64 %21, %22
  %24 = load i64, ptr %8, align 8, !tbaa !8
  %25 = mul i64 %23, %24
  %26 = mul i64 %25, 2
  store i64 %26, ptr %11, align 8, !tbaa !8
  %27 = getelementptr inbounds [16 x i16], ptr %10, i64 0, i64 0
  %28 = load ptr, ptr %6, align 8, !tbaa !15
  %29 = load i64, ptr %9, align 8, !tbaa !8
  %30 = load i64, ptr %8, align 8, !tbaa !8
  %31 = mul i64 %29, %30
  %32 = getelementptr inbounds nuw i16, ptr %28, i64 %31
  %33 = load i64, ptr %11, align 8, !tbaa !8
  call void @llvm.memcpy.p0.p0.i64(ptr align 16 %27, ptr align 2 %32, i64 %33, i1 false)
  %34 = load ptr, ptr %5, align 8, !tbaa !4
  %35 = getelementptr inbounds [16 x i16], ptr %10, i64 0, i64 0
  %36 = load i64, ptr %7, align 8, !tbaa !8
  %37 = load i64, ptr %9, align 8, !tbaa !8
  %38 = sub i64 %36, %37
  call void %34(ptr noundef %35, i64 noundef %38)
  %39 = load ptr, ptr %6, align 8, !tbaa !15
  %40 = load i64, ptr %9, align 8, !tbaa !8
  %41 = load i64, ptr %8, align 8, !tbaa !8
  %42 = mul i64 %40, %41
  %43 = getelementptr inbounds nuw i16, ptr %39, i64 %42
  %44 = getelementptr inbounds [16 x i16], ptr %10, i64 0, i64 0
  %45 = load i64, ptr %11, align 8, !tbaa !8
  call void @llvm.memcpy.p0.p0.i64(ptr align 2 %43, ptr align 16 %44, i64 %45, i1 false)
  call void @llvm.lifetime.end.p0(i64 8, ptr %11) #11
  call void @llvm.lifetime.end.p0(i64 32, ptr %10) #11
  br label %46

46:                                               ; preds = %20, %4
  call void @llvm.lifetime.end.p0(i64 8, ptr %9) #11
  ret void
}

; Function Attrs: mustprogress uwtable
define dso_local void @meshopt_decodeFilterQuat(ptr noundef %0, i64 noundef %1, i64 noundef %2) #0 {
  %4 = alloca ptr, align 8
  %5 = alloca i64, align 8
  %6 = alloca i64, align 8
  store ptr %0, ptr %4, align 8, !tbaa !4
  store i64 %1, ptr %5, align 8, !tbaa !8
  store i64 %2, ptr %6, align 8, !tbaa !8
  %7 = load ptr, ptr %4, align 8, !tbaa !4
  %8 = load i64, ptr %5, align 8, !tbaa !8
  call void @_ZN7meshoptL12dispatchSimdIsEEvPFvPT_mES2_mm(ptr noundef @_ZN7meshoptL20decodeFilterQuatSimdEPsm, ptr noundef %7, i64 noundef %8, i64 noundef 4)
  ret void
}