; Function Attrs: mustprogress nofree norecurse nosync nounwind memory(argmem: readwrite) uwtable
define dso_local void @meshopt_decodeFilterQuat(ptr noundef captures(none) %0, i64 noundef %1, i64 noundef %2) local_unnamed_addr #0 {
  %4 = alloca [16 x i16], align 16
  %5 = and i64 %1, -4
  %.not.i2 = icmp eq i64 %5, 0
  br i1 %.not.i2, label %_ZN7meshoptL20decodeFilterQuatSimdEPsm.exit13, label %.lr.ph.i3

.lr.ph.i3:                                        ; preds = %3, %.lr.ph.i3
  %.062.i4 = phi i64 [ %82, %.lr.ph.i3 ], [ 0, %3 ]
  %6 = shl i64 %.062.i4, 2
  %7 = getelementptr inbounds nuw i16, ptr %0, i64 %6
  %8 = load <4 x float>, ptr %7, align 1
  %9 = or disjoint i64 %6, 8
  %10 = getelementptr inbounds nuw i16, ptr %0, i64 %9
  %11 = load <4 x float>, ptr %10, align 1
  %12 = shufflevector <4 x float> %8, <4 x float> %11, <4 x i32> <i32 0, i32 2, i32 4, i32 6>
  %13 = shufflevector <4 x float> %8, <4 x float> %11, <4 x i32> <i32 1, i32 3, i32 5, i32 7>
  %14 = bitcast <4 x float> %12 to <4 x i32>
  %15 = shl <4 x i32> %14, splat (i32 16)
  %16 = ashr exact <4 x i32> %15, splat (i32 16)
  %17 = ashr <4 x i32> %14, splat (i32 16)
  %18 = bitcast <4 x float> %13 to <4 x i32>
  %19 = shl <4 x i32> %18, splat (i32 16)
  %20 = ashr exact <4 x i32> %19, splat (i32 16)
  %21 = ashr <4 x i32> %18, splat (i32 16)
  %22 = or <4 x i32> %21, splat (i32 3)
  %23 = sitofp <4 x i32> %22 to <4 x float>
  %24 = fdiv <4 x float> splat (float 0x3FE6A09E60000000), %23
  %25 = sitofp <4 x i32> %16 to <4 x float>
  %26 = fmul <4 x float> %24, %25
  %27 = sitofp <4 x i32> %17 to <4 x float>
  %28 = fmul <4 x float> %24, %27
  %29 = sitofp <4 x i32> %20 to <4 x float>
  %30 = fmul <4 x float> %24, %29
  %31 = fmul <4 x float> %26, %26
  %32 = fmul <4 x float> %28, %28
  %33 = fmul <4 x float> %30, %30
  %34 = fadd <4 x float> %32, %33
  %35 = fadd <4 x float> %31, %34
  %36 = fsub <4 x float> splat (float 1.000000e+00), %35
  %37 = tail call noundef <4 x float> @llvm.x86.sse.max.ps(<4 x float> %36, <4 x float> zeroinitializer)
  %38 = tail call noundef <4 x float> @llvm.sqrt.v4f32(<4 x float> %37)
  %39 = fmul <4 x float> %26, splat (float 3.276700e+04)
  %40 = tail call <4 x i32> @llvm.x86.sse2.cvtps2dq(<4 x float> %39)
  %41 = bitcast <4 x i32> %40 to <2 x i64>
  %42 = fmul <4 x float> %28, splat (float 3.276700e+04)
  %43 = tail call <4 x i32> @llvm.x86.sse2.cvtps2dq(<4 x float> %42)
  %44 = fmul <4 x float> %30, splat (float 3.276700e+04)
  %45 = tail call <4 x i32> @llvm.x86.sse2.cvtps2dq(<4 x float> %44)
  %46 = fmul <4 x float> %38, splat (float 3.276700e+04)
  %47 = tail call <4 x i32> @llvm.x86.sse2.cvtps2dq(<4 x float> %46)
  %48 = bitcast <4 x i32> %47 to <2 x i64>
  %49 = and <2 x i64> %41, splat (i64 281470681808895)
  %50 = shl <4 x i32> %45, splat (i32 16)
  %51 = bitcast <4 x i32> %50 to <2 x i64>
  %52 = or disjoint <2 x i64> %49, %51
  %53 = and <2 x i64> %48, splat (i64 281470681808895)
  %54 = shl <4 x i32> %43, splat (i32 16)
  %55 = bitcast <4 x i32> %54 to <2 x i64>
  %56 = or disjoint <2 x i64> %53, %55
  %57 = bitcast <2 x i64> %56 to <8 x i16>
  %58 = bitcast <2 x i64> %52 to <8 x i16>
  %59 = shufflevector <8 x i16> %57, <8 x i16> %58, <8 x i32> <i32 0, i32 8, i32 1, i32 9, i32 2, i32 10, i32 3, i32 11>
  %60 = bitcast <8 x i16> %59 to <2 x i64>
  %61 = shufflevector <8 x i16> %57, <8 x i16> %58, <8 x i32> <i32 4, i32 12, i32 5, i32 13, i32 6, i32 14, i32 7, i32 15>
  %62 = bitcast <8 x i16> %61 to <2 x i64>
  %.sroa.0.0.vec.extract.i5 = extractelement <2 x i64> %60, i64 0
  %bc.i6 = bitcast <4 x float> %8 to <8 x i16>
  %63 = extractelement <8 x i16> %bc.i6, i64 3
  %64 = sext i16 %63 to i64
  %65 = shl nsw i64 %64, 4
  %66 = tail call noundef i64 @llvm.fshl.i64(i64 %.sroa.0.0.vec.extract.i5, i64 %.sroa.0.0.vec.extract.i5, i64 %65)
  store i64 %66, ptr %7, align 8, !tbaa !10
  %.sroa.0.8.vec.extract.i7 = extractelement <2 x i64> %60, i64 1
  %67 = extractelement <8 x i16> %bc.i6, i64 7
  %68 = sext i16 %67 to i64
  %69 = shl nsw i64 %68, 4
  %70 = tail call noundef i64 @llvm.fshl.i64(i64 %.sroa.0.8.vec.extract.i7, i64 %.sroa.0.8.vec.extract.i7, i64 %69)
  %71 = getelementptr inbounds nuw i8, ptr %7, i64 8
  store i64 %70, ptr %71, align 8, !tbaa !10
  %.sroa.5.16.vec.extract.i9 = extractelement <2 x i64> %62, i64 0
  %bc64.i10 = bitcast <4 x float> %11 to <8 x i16>
  %72 = extractelement <8 x i16> %bc64.i10, i64 3
  %73 = sext i16 %72 to i64
  %74 = shl nsw i64 %73, 4
  %75 = tail call noundef i64 @llvm.fshl.i64(i64 %.sroa.5.16.vec.extract.i9, i64 %.sroa.5.16.vec.extract.i9, i64 %74)
  %76 = getelementptr inbounds nuw i8, ptr %7, i64 16
  store i64 %75, ptr %76, align 8, !tbaa !10
  %.sroa.5.24.vec.extract.i11 = extractelement <2 x i64> %62, i64 1
  %77 = extractelement <8 x i16> %bc64.i10, i64 7
  %78 = sext i16 %77 to i64
  %79 = shl nsw i64 %78, 4
  %80 = tail call noundef i64 @llvm.fshl.i64(i64 %.sroa.5.24.vec.extract.i11, i64 %.sroa.5.24.vec.extract.i11, i64 %79)
  %81 = getelementptr inbounds nuw i8, ptr %7, i64 24
  store i64 %80, ptr %81, align 8, !tbaa !10
  %82 = add nuw i64 %.062.i4, 4
  %83 = icmp ult i64 %82, %5
  br i1 %83, label %.lr.ph.i3, label %_ZN7meshoptL20decodeFilterQuatSimdEPsm.exit13, !llvm.loop !12

_ZN7meshoptL20decodeFilterQuatSimdEPsm.exit13:    ; preds = %.lr.ph.i3, %3
  %.not.i = icmp eq i64 %5, %1
  br i1 %.not.i, label %_ZN7meshoptL12dispatchSimdIsEEvPFvPT_mES2_mm.exit, label %84

84:                                               ; preds = %_ZN7meshoptL20decodeFilterQuatSimdEPsm.exit13
  call void @llvm.lifetime.start.p0(i64 32, ptr nonnull %4)
  call void @llvm.memset.p0.i64(ptr noundef nonnull align 16 dereferenceable(32) %4, i8 0, i64 32, i1 false)
  %85 = and i64 %1, 3
  %86 = shl nuw nsw i64 %85, 3
  %.idx.i = shl i64 %5, 3
  %87 = getelementptr inbounds nuw i8, ptr %0, i64 %.idx.i
  call void @llvm.memcpy.p0.p0.i64(ptr nonnull align 16 %4, ptr align 2 %87, i64 %86, i1 false)
  %.not.i1 = icmp eq i64 %85, 0
  br i1 %.not.i1, label %_ZN7meshoptL20decodeFilterQuatSimdEPsm.exit, label %.lr.ph.i

.lr.ph.i:                                         ; preds = %84
  %.0..0. = load <4 x float>, ptr %4, align 16
  %.16..16..sroa_idx = getelementptr inbounds nuw i8, ptr %4, i64 16
  %.16..16. = load <4 x float>, ptr %.16..16..sroa_idx, align 16
  %88 = shufflevector <4 x float> %.0..0., <4 x float> %.16..16., <4 x i32> <i32 0, i32 2, i32 4, i32 6>
  %89 = shufflevector <4 x float> %.0..0., <4 x float> %.16..16., <4 x i32> <i32 1, i32 3, i32 5, i32 7>
  %90 = bitcast <4 x float> %88 to <4 x i32>
  %91 = shl <4 x i32> %90, splat (i32 16)
  %92 = ashr exact <4 x i32> %91, splat (i32 16)
  %93 = ashr <4 x i32> %90, splat (i32 16)
  %94 = bitcast <4 x float> %89 to <4 x i32>
  %95 = shl <4 x i32> %94, splat (i32 16)
  %96 = ashr exact <4 x i32> %95, splat (i32 16)
  %97 = ashr <4 x i32> %94, splat (i32 16)
  %98 = or <4 x i32> %97, splat (i32 3)
  %99 = sitofp <4 x i32> %98 to <4 x float>
  %100 = fdiv <4 x float> splat (float 0x3FE6A09E60000000), %99
  %101 = sitofp <4 x i32> %92 to <4 x float>
  %102 = fmul <4 x float> %100, %101
  %103 = sitofp <4 x i32> %93 to <4 x float>
  %104 = fmul <4 x float> %100, %103
  %105 = sitofp <4 x i32> %96 to <4 x float>
  %106 = fmul <4 x float> %100, %105
  %107 = fmul <4 x float> %102, %102
  %108 = fmul <4 x float> %104, %104
  %109 = fmul <4 x float> %106, %106
  %110 = fadd <4 x float> %108, %109
  %111 = fadd <4 x float> %107, %110
  %112 = fsub <4 x float> splat (float 1.000000e+00), %111
  %113 = tail call noundef <4 x float> @llvm.x86.sse.max.ps(<4 x float> %112, <4 x float> zeroinitializer)
  %114 = tail call noundef <4 x float> @llvm.sqrt.v4f32(<4 x float> %113)
  %115 = fmul <4 x float> %102, splat (float 3.276700e+04)
  %116 = tail call <4 x i32> @llvm.x86.sse2.cvtps2dq(<4 x float> %115)
  %117 = bitcast <4 x i32> %116 to <2 x i64>
  %118 = fmul <4 x float> %104, splat (float 3.276700e+04)
  %119 = tail call <4 x i32> @llvm.x86.sse2.cvtps2dq(<4 x float> %118)
  %120 = fmul <4 x float> %106, splat (float 3.276700e+04)
  %121 = tail call <4 x i32> @llvm.x86.sse2.cvtps2dq(<4 x float> %120)
  %122 = fmul <4 x float> %114, splat (float 3.276700e+04)
  %123 = tail call <4 x i32> @llvm.x86.sse2.cvtps2dq(<4 x float> %122)
  %124 = bitcast <4 x i32> %123 to <2 x i64>
  %125 = and <2 x i64> %117, splat (i64 281470681808895)
  %126 = shl <4 x i32> %121, splat (i32 16)
  %127 = bitcast <4 x i32> %126 to <2 x i64>
  %128 = or disjoint <2 x i64> %125, %127
  %129 = and <2 x i64> %124, splat (i64 281470681808895)
  %130 = shl <4 x i32> %119, splat (i32 16)
  %131 = bitcast <4 x i32> %130 to <2 x i64>
  %132 = or disjoint <2 x i64> %129, %131
  %133 = bitcast <2 x i64> %132 to <8 x i16>
  %134 = bitcast <2 x i64> %128 to <8 x i16>
  %135 = shufflevector <8 x i16> %133, <8 x i16> %134, <8 x i32> <i32 0, i32 8, i32 1, i32 9, i32 2, i32 10, i32 3, i32 11>
  %136 = bitcast <8 x i16> %135 to <2 x i64>
  %137 = shufflevector <8 x i16> %133, <8 x i16> %134, <8 x i32> <i32 4, i32 12, i32 5, i32 13, i32 6, i32 14, i32 7, i32 15>
  %138 = bitcast <8 x i16> %137 to <2 x i64>
  %.sroa.0.0.vec.extract.i = extractelement <2 x i64> %136, i64 0
  %bc.i = bitcast <4 x float> %.0..0. to <8 x i16>
  %139 = extractelement <8 x i16> %bc.i, i64 3
  %140 = sext i16 %139 to i64
  %141 = shl nsw i64 %140, 4
  %142 = tail call noundef i64 @llvm.fshl.i64(i64 %.sroa.0.0.vec.extract.i, i64 %.sroa.0.0.vec.extract.i, i64 %141)
  store i64 %142, ptr %4, align 16, !tbaa !10
  %.sroa.0.8.vec.extract.i = extractelement <2 x i64> %136, i64 1
  %143 = extractelement <8 x i16> %bc.i, i64 7
  %144 = sext i16 %143 to i64
  %145 = shl nsw i64 %144, 4
  %146 = tail call noundef i64 @llvm.fshl.i64(i64 %.sroa.0.8.vec.extract.i, i64 %.sroa.0.8.vec.extract.i, i64 %145)
  %.8..8..sroa_idx = getelementptr inbounds nuw i8, ptr %4, i64 8
  store i64 %146, ptr %.8..8..sroa_idx, align 8, !tbaa !10
  %.sroa.5.16.vec.extract.i = extractelement <2 x i64> %138, i64 0
  %bc64.i = bitcast <4 x float> %.16..16. to <8 x i16>
  %147 = extractelement <8 x i16> %bc64.i, i64 3
  %148 = sext i16 %147 to i64
  %149 = shl nsw i64 %148, 4
  %150 = tail call noundef i64 @llvm.fshl.i64(i64 %.sroa.5.16.vec.extract.i, i64 %.sroa.5.16.vec.extract.i, i64 %149)
  %.16..16..sroa_idx15 = getelementptr inbounds nuw i8, ptr %4, i64 16
  store i64 %150, ptr %.16..16..sroa_idx15, align 16, !tbaa !10
  %.sroa.5.24.vec.extract.i = extractelement <2 x i64> %138, i64 1
  %151 = extractelement <8 x i16> %bc64.i, i64 7
  %152 = sext i16 %151 to i64
  %153 = shl nsw i64 %152, 4
  %154 = tail call noundef i64 @llvm.fshl.i64(i64 %.sroa.5.24.vec.extract.i, i64 %.sroa.5.24.vec.extract.i, i64 %153)
  %.24..24..sroa_idx = getelementptr inbounds nuw i8, ptr %4, i64 24
  store i64 %154, ptr %.24..24..sroa_idx, align 8, !tbaa !10
  br label %_ZN7meshoptL20decodeFilterQuatSimdEPsm.exit, !llvm.loop !12

_ZN7meshoptL20decodeFilterQuatSimdEPsm.exit:      ; preds = %.lr.ph.i, %84
  call void @llvm.memcpy.p0.p0.i64(ptr align 2 %87, ptr nonnull align 16 %4, i64 %86, i1 false)
  call void @llvm.lifetime.end.p0(i64 32, ptr nonnull %4)
  br label %_ZN7meshoptL12dispatchSimdIsEEvPFvPT_mES2_mm.exit

_ZN7meshoptL12dispatchSimdIsEEvPFvPT_mES2_mm.exit: ; preds = %_ZN7meshoptL20decodeFilterQuatSimdEPsm.exit13, %_ZN7meshoptL20decodeFilterQuatSimdEPsm.exit
  ret void
}